; Function Attrs: nounwind uwtable
define ptr @l_Lean_SMap_toList___at___private_Lean_Meta_Tactic_Simp_SimpCongrTheorems_0__Lean_Meta_reprSimpCongrTheorems____x40_Lean_Meta_Tactic_Simp_SimpCongrTheorems___hyg_185____spec__1___boxed(ptr noundef %0) local_unnamed_addr #1 {
  %2 = load ptr, ptr @l_Lean_SMap_toList___at___private_Lean_Meta_Tactic_Simp_SimpCongrTheorems_0__Lean_Meta_reprSimpCongrTheorems____x40_Lean_Meta_Tactic_Simp_SimpCongrTheorems___hyg_185____spec__1___closed__1, align 8, !tbaa !9
  %3 = getelementptr inbounds nuw i8, ptr %0, i64 8
  %4 = getelementptr inbounds nuw i8, ptr %0, i64 16
  %5 = load ptr, ptr %4, align 8, !tbaa !9
  %6 = load ptr, ptr %3, align 8, !tbaa !9
  %7 = getelementptr inbounds nuw i8, ptr %6, i64 16
  %8 = load ptr, ptr %7, align 8, !tbaa !9
  %9 = getelementptr i8, ptr %8, i64 8
  %.val.i.i = load i64, ptr %9, align 8, !tbaa !12
  %.mask.i.i = and i64 %.val.i.i, 9223372036854775807
  %.not.i.i = icmp eq i64 %.mask.i.i, 0
  br i1 %.not.i.i, label %l_Lean_SMap_toList___at___private_Lean_Meta_Tactic_Simp_SimpCongrTheorems_0__Lean_Meta_reprSimpCongrTheorems____x40_Lean_Meta_Tactic_Simp_SimpCongrTheorems___hyg_185____spec__1.exit, label %lean_dec.exit.i.i

lean_dec.exit.i.i:                                ; preds = %1
  %10 = ptrtoint ptr %2 to i64
  %11 = and i64 %10, 1
  %.not42.i.i = icmp eq i64 %11, 0
  br i1 %.not42.i.i, label %12, label %lean_inc.exit.i.i

12:                                               ; preds = %lean_dec.exit.i.i
  %.val.i.i.i = load i32, ptr %2, align 4, !tbaa !4
  %13 = icmp sgt i32 %.val.i.i.i, 0
  br i1 %13, label %14, label %16, !prof !11

14:                                               ; preds = %12
  %15 = add nuw i32 %.val.i.i.i, 1
  store i32 %15, ptr %2, align 4, !tbaa !4
  br label %lean_inc.exit.i.i

16:                                               ; preds = %12
  %.not.i41.i.i = icmp eq i32 %.val.i.i.i, 0
  br i1 %.not.i41.i.i, label %lean_inc.exit.i.i, label %17

17:                                               ; preds = %16
  tail call void @lean_inc_ref_cold(ptr noundef nonnull %2) #5
  br label %lean_inc.exit.i.i

lean_inc.exit.i.i:                                ; preds = %17, %16, %14, %lean_dec.exit.i.i
  %18 = tail call ptr @l_Array_foldlMUnsafe_fold___at___private_Lean_Meta_Tactic_Simp_SimpCongrTheorems_0__Lean_Meta_reprSimpCongrTheorems____x40_Lean_Meta_Tactic_Simp_SimpCongrTheorems___hyg_185____spec__6___rarg(ptr noundef %2, ptr noundef nonnull %8, i64 noundef 0, i64 noundef %.mask.i.i, ptr noundef nonnull inttoptr (i64 1 to ptr))
  br label %l_Lean_SMap_toList___at___private_Lean_Meta_Tactic_Simp_SimpCongrTheorems_0__Lean_Meta_reprSimpCongrTheorems____x40_Lean_Meta_Tactic_Simp_SimpCongrTheorems___hyg_185____spec__1.exit

l_Lean_SMap_toList___at___private_Lean_Meta_Tactic_Simp_SimpCongrTheorems_0__Lean_Meta_reprSimpCongrTheorems____x40_Lean_Meta_Tactic_Simp_SimpCongrTheorems___hyg_185____spec__1.exit: ; preds = %1, %lean_inc.exit.i.i
  %.sink.i.i = phi ptr [ %18, %lean_inc.exit.i.i ], [ inttoptr (i64 1 to ptr), %1 ]
  %19 = tail call ptr @l_Lean_PersistentHashMap_foldlMAux___at_Lean_MetavarContext_getExprAssignmentDomain___spec__2___rarg(ptr noundef %2, ptr noundef %5, ptr noundef %.sink.i.i) #5
  %20 = ptrtoint ptr %0 to i64
  %21 = and i64 %20, 1
  %.not = icmp eq i64 %21, 0
  br i1 %.not, label %22, label %lean_dec.exit

22:                                               ; preds = %l_Lean_SMap_toList___at___private_Lean_Meta_Tactic_Simp_SimpCongrTheorems_0__Lean_Meta_reprSimpCongrTheorems____x40_Lean_Meta_Tactic_Simp_SimpCongrTheorems___hyg_185____spec__1.exit
  %23 = load i32, ptr %0, align 4, !tbaa !4
  %24 = icmp sgt i32 %23, 1
  br i1 %24, label %25, label %27, !prof !11

25:                                               ; preds = %22
  %26 = add nsw i32 %23, -1
  store i32 %26, ptr %0, align 4, !tbaa !4
  br label %lean_dec.exit

27:                                               ; preds = %22
  %.not.i = icmp eq i32 %23, 0
  br i1 %.not.i, label %lean_dec.exit, label %28

28:                                               ; preds = %27
  tail call void @lean_dec_ref_cold(ptr noundef nonnull %0) #5
  br label %lean_dec.exit

lean_dec.exit:                                    ; preds = %28, %27, %25, %l_Lean_SMap_toList___at___private_Lean_Meta_Tactic_Simp_SimpCongrTheorems_0__Lean_Meta_reprSimpCongrTheorems____x40_Lean_Meta_Tactic_Simp_SimpCongrTheorems___hyg_185____spec__1.exit
  ret ptr %19
}